; Function Attrs: mustprogress uwtable
define internal void @"_ZZ25test_submodule_exceptionsRN8pybind117module_EEN3$_28__invokeENSt15__exception_ptr13exception_ptrE"(ptr nocapture noundef readonly %0) #1 align 2 personality ptr @__gxx_personality_v0 {
  %2 = alloca %"class.std::__exception_ptr::exception_ptr", align 8
  %.val = load ptr, ptr %0, align 8
  call void @llvm.lifetime.start.p0(i64 8, ptr nonnull %2)
  %.not.i = icmp eq ptr %.val, null
  br i1 %.not.i, label %"_ZZ25test_submodule_exceptionsRN8pybind117module_EENK3$_2clENSt15__exception_ptr13exception_ptrE.exit", label %_ZNSt15__exception_ptr13exception_ptrC2ERKS0_.exit.i

_ZNSt15__exception_ptr13exception_ptrC2ERKS0_.exit.i: ; preds = %1
  store ptr %.val, ptr %2, align 8
  call void @_ZNSt15__exception_ptr13exception_ptr9_M_addrefEv(ptr noundef nonnull align 8 dereferenceable(8) %2) #25
  invoke void @_ZSt17rethrow_exceptionNSt15__exception_ptr13exception_ptrE(ptr noundef nonnull %2) #29
          to label %3 unwind label %4

3:                                                ; preds = %_ZNSt15__exception_ptr13exception_ptrC2ERKS0_.exit.i
  unreachable

4:                                                ; preds = %_ZNSt15__exception_ptr13exception_ptrC2ERKS0_.exit.i
  %5 = landingpad { ptr, i32 }
          cleanup
          catch ptr @_ZTI11MyException
  %6 = extractvalue { ptr, i32 } %5, 1
  %7 = load ptr, ptr %2, align 8
  %.not.i6.i = icmp eq ptr %7, null
  br i1 %.not.i6.i, label %_ZNSt15__exception_ptr13exception_ptrD2Ev.exit.i, label %8

8:                                                ; preds = %4
  call void @_ZNSt15__exception_ptr13exception_ptr10_M_releaseEv(ptr noundef nonnull align 8 dereferenceable(8) %2) #25
  br label %_ZNSt15__exception_ptr13exception_ptrD2Ev.exit.i

_ZNSt15__exception_ptr13exception_ptrD2Ev.exit.i: ; preds = %8, %4
  %9 = call i32 @llvm.eh.typeid.for(ptr nonnull @_ZTI11MyException) #25
  %10 = icmp eq i32 %6, %9
  br i1 %10, label %11, label %21

11:                                               ; preds = %_ZNSt15__exception_ptr13exception_ptrD2Ev.exit.i
  %12 = extractvalue { ptr, i32 } %5, 0
  %13 = call ptr @__cxa_begin_catch(ptr %12) #25
  %14 = load ptr, ptr %13, align 8
  %15 = getelementptr inbounds i8, ptr %14, i64 16
  %16 = load ptr, ptr %15, align 8
  %17 = call noundef ptr %16(ptr noundef nonnull align 8 dereferenceable(40) %13) #25
  %18 = load ptr, ptr @_ZZ25test_submodule_exceptionsRN8pybind117module_EE10ex_storage, align 8
  invoke void @PyErr_SetString(ptr noundef %18, ptr noundef %17)
          to label %_ZN8pybind119set_errorERKNS_6handleEPKc.exit.i unwind label %19

_ZN8pybind119set_errorERKNS_6handleEPKc.exit.i:   ; preds = %11
  call void @__cxa_end_catch()
  br label %"_ZZ25test_submodule_exceptionsRN8pybind117module_EENK3$_2clENSt15__exception_ptr13exception_ptrE.exit"

19:                                               ; preds = %11
  %20 = landingpad { ptr, i32 }
          cleanup
  invoke void @__cxa_end_catch()
          to label %21 unwind label %22

21:                                               ; preds = %19, %_ZNSt15__exception_ptr13exception_ptrD2Ev.exit.i
  %.merged.i = phi { ptr, i32 } [ %20, %19 ], [ %5, %_ZNSt15__exception_ptr13exception_ptrD2Ev.exit.i ]
  resume { ptr, i32 } %.merged.i

22:                                               ; preds = %19
  %23 = landingpad { ptr, i32 }
          catch ptr null
  %24 = extractvalue { ptr, i32 } %23, 0
  call void @__clang_call_terminate(ptr %24) #26
  unreachable

"_ZZ25test_submodule_exceptionsRN8pybind117module_EENK3$_2clENSt15__exception_ptr13exception_ptrE.exit": ; preds = %1, %_ZN8pybind119set_errorERKNS_6handleEPKc.exit.i
  call void @llvm.lifetime.end.p0(i64 8, ptr nonnull %2)
  ret void
}